; Function Attrs: mustprogress nounwind uwtable
define dso_local noundef zeroext i1 @_ZNK5clang12Preprocessor16needModuleMacrosEv(ptr noundef nonnull align 8 dereferenceable(3288) %0) local_unnamed_addr #1 align 2 {
  %2 = getelementptr inbounds nuw i8, ptr %0, i64 1312
  %3 = tail call noundef zeroext i1 @_ZNK4llvm15SmallVectorBaseIjE5emptyEv(ptr noundef nonnull align 8 dereferenceable(16) %2) #17
  br i1 %3, label %15, label %4

4:                                                ; preds = %1
  %5 = getelementptr inbounds nuw i8, ptr %0, i64 56
  %6 = load ptr, ptr %5, align 8
  %7 = getelementptr inbounds nuw i8, ptr %6, i64 16
  %8 = load i64, ptr %7, align 8
  %9 = and i64 %8, 68719476736
  %.not = icmp eq i64 %9, 0
  br i1 %.not, label %10, label %15

10:                                               ; preds = %4
  %11 = getelementptr inbounds nuw i8, ptr %6, i64 184
  %12 = load i64, ptr %11, align 8
  %13 = and i64 %12, 61572651155456
  %14 = icmp ne i64 %13, 0
  br label %15

15:                                               ; preds = %4, %1, %10
  %.0 = phi i1 [ %14, %10 ], [ false, %1 ], [ true, %4 ]
  ret i1 %.0
}